target datalayout = "e-m:e-p270:32:32-p271:32:32-p272:64:64-i64:64-i128:128-f80:128-n8:16:32:64-S128"
target triple = "x86_64-pc-linux-gnu"

%struct.TuplesortPublic = type { ptr, ptr, ptr, ptr, ptr, ptr, ptr, ptr, ptr, i8, i32, ptr, ptr, i32, i8, ptr }
%struct.SortSupportData = type { ptr, i32, i8, i8, i16, ptr, ptr, i8, ptr, ptr, ptr }
%struct.TuplesortDatumArg = type { i32, i32 }

@trace_sort = external global i8, align 1
@.str.1 = private unnamed_addr constant [20 x i8] c"tuplesortvariants.c\00", align 1
@CurrentMemoryContext = external global ptr, align 8
@.str.5 = private unnamed_addr constant [50 x i8] c"begin datum sort: workMem = %d, randomAccess = %c\00", align 1
@__func__.tuplesort_begin_datum = private unnamed_addr constant [22 x i8] c"tuplesort_begin_datum\00", align 1

; Function Attrs: inlinehint nounwind uwtable
define internal ptr @MemoryContextSwitchTo(ptr noundef %0) #3 {
  %2 = alloca ptr, align 8
  %3 = alloca ptr, align 8
  store ptr %0, ptr %2, align 8
  call void @llvm.lifetime.start.p0(i64 8, ptr %3) #6
  %4 = load ptr, ptr @CurrentMemoryContext, align 8
  store ptr %4, ptr %3, align 8
  %5 = load ptr, ptr %2, align 8
  store ptr %5, ptr @CurrentMemoryContext, align 8
  %6 = load ptr, ptr %3, align 8
  call void @llvm.lifetime.end.p0(i64 8, ptr %3) #6
  ret ptr %6
}

; Function Attrs: nounwind uwtable
define dso_local ptr @tuplesort_begin_datum(i32 noundef %0, i32 noundef %1, i32 noundef %2, i1 noundef zeroext %3, i32 noundef %4, ptr noundef %5, i32 noundef %6) #0 {
  %8 = alloca i32, align 4
  %9 = alloca i32, align 4
  %10 = alloca i32, align 4
  %11 = alloca i8, align 1
  %12 = alloca i32, align 4
  %13 = alloca ptr, align 8
  %14 = alloca i32, align 4
  %15 = alloca ptr, align 8
  %16 = alloca ptr, align 8
  %17 = alloca ptr, align 8
  %18 = alloca ptr, align 8
  %19 = alloca i16, align 2
  %20 = alloca i8, align 1
  store i32 %0, ptr %8, align 4
  store i32 %1, ptr %9, align 4
  store i32 %2, ptr %10, align 4
  %21 = zext i1 %3 to i8
  store i8 %21, ptr %11, align 1
  store i32 %4, ptr %12, align 4
  store ptr %5, ptr %13, align 8
  store i32 %6, ptr %14, align 4
  call void @llvm.lifetime.start.p0(i64 8, ptr %15) #6
  %22 = load i32, ptr %12, align 4
  %23 = load ptr, ptr %13, align 8
  %24 = load i32, ptr %14, align 4
  %25 = call ptr @tuplesort_begin_common(i32 noundef %22, ptr noundef %23, i32 noundef %24)
  store ptr %25, ptr %15, align 8
  call void @llvm.lifetime.start.p0(i64 8, ptr %16) #6
  %26 = load ptr, ptr %15, align 8
  store ptr %26, ptr %16, align 8
  call void @llvm.lifetime.start.p0(i64 8, ptr %17) #6
  call void @llvm.lifetime.start.p0(i64 8, ptr %18) #6
  call void @llvm.lifetime.start.p0(i64 2, ptr %19) #6
  call void @llvm.lifetime.start.p0(i64 1, ptr %20) #6
  %27 = load ptr, ptr %16, align 8
  %28 = getelementptr inbounds nuw %struct.TuplesortPublic, ptr %27, i32 0, i32 6
  %29 = load ptr, ptr %28, align 8
  %30 = call ptr @MemoryContextSwitchTo(ptr noundef %29)
  store ptr %30, ptr %18, align 8
  %31 = call ptr @palloc(i64 noundef 8)
  store ptr %31, ptr %17, align 8
  %32 = load i8, ptr @trace_sort, align 1, !range !4, !noundef !5
  %33 = trunc i8 %32 to i1
  br i1 %33, label %34, label %50

34:                                               ; preds = %7
  br label %35

35:                                               ; preds = %34
  br i1 false, label %36, label %38

36:                                               ; preds = %35
  %37 = call zeroext i1 @errstart_cold(i32 noundef 15, ptr noundef null) #7
  br i1 %37, label %40, label %47

38:                                               ; preds = %35
  %39 = call zeroext i1 @errstart(i32 noundef 15, ptr noundef null)
  br i1 %39, label %40, label %47

40:                                               ; preds = %38, %36
  %41 = load i32, ptr %12, align 4
  %42 = load i32, ptr %14, align 4
  %43 = and i32 %42, 1
  %44 = icmp ne i32 %43, 0
  %45 = select i1 %44, i32 116, i32 102
  %46 = call i32 (ptr, ...) @errmsg_internal(ptr noundef @.str.5, i32 noundef %41, i32 noundef %45)
  call void @errfinish(ptr noundef @.str.1, i32 noundef 590, ptr noundef @__func__.tuplesort_begin_datum)
  br label %47

47:                                               ; preds = %40, %38, %36
  br label %48

48:                                               ; preds = %47
  br label %49

49:                                               ; preds = %48
  br label %50

50:                                               ; preds = %49, %7
  %51 = load ptr, ptr %16, align 8
  %52 = getelementptr inbounds nuw %struct.TuplesortPublic, ptr %51, i32 0, i32 10
  store i32 1, ptr %52, align 4
  br label %53

53:                                               ; preds = %50
  br label %54

54:                                               ; preds = %53
  br label %55

55:                                               ; preds = %54
  %56 = load ptr, ptr %16, align 8
  %57 = getelementptr inbounds nuw %struct.TuplesortPublic, ptr %56, i32 0, i32 2
  store ptr @removeabbrev_datum, ptr %57, align 8
  %58 = load ptr, ptr %16, align 8
  %59 = getelementptr inbounds nuw %struct.TuplesortPublic, ptr %58, i32 0, i32 0
  store ptr @comparetup_datum, ptr %59, align 8
  %60 = load ptr, ptr %16, align 8
  %61 = getelementptr inbounds nuw %struct.TuplesortPublic, ptr %60, i32 0, i32 1
  store ptr @comparetup_datum_tiebreak, ptr %61, align 8
  %62 = load ptr, ptr %16, align 8
  %63 = getelementptr inbounds nuw %struct.TuplesortPublic, ptr %62, i32 0, i32 3
  store ptr @writetup_datum, ptr %63, align 8
  %64 = load ptr, ptr %16, align 8
  %65 = getelementptr inbounds nuw %struct.TuplesortPublic, ptr %64, i32 0, i32 4
  store ptr @readtup_datum, ptr %65, align 8
  %66 = load ptr, ptr %16, align 8
  %67 = getelementptr inbounds nuw %struct.TuplesortPublic, ptr %66, i32 0, i32 9
  store i8 1, ptr %67, align 8
  %68 = load ptr, ptr %17, align 8
  %69 = load ptr, ptr %16, align 8
  %70 = getelementptr inbounds nuw %struct.TuplesortPublic, ptr %69, i32 0, i32 15
  store ptr %68, ptr %70, align 8
  %71 = load i32, ptr %8, align 4
  %72 = load ptr, ptr %17, align 8
  %73 = getelementptr inbounds nuw %struct.TuplesortDatumArg, ptr %72, i32 0, i32 0
  store i32 %71, ptr %73, align 4
  %74 = load i32, ptr %8, align 4
  call void @get_typlenbyval(i32 noundef %74, ptr noundef %19, ptr noundef %20)
  %75 = load i16, ptr %19, align 2
  %76 = sext i16 %75 to i32
  %77 = load ptr, ptr %17, align 8
  %78 = getelementptr inbounds nuw %struct.TuplesortDatumArg, ptr %77, i32 0, i32 1
  store i32 %76, ptr %78, align 4
  %79 = load i8, ptr %20, align 1, !range !4, !noundef !5
  %80 = trunc i8 %79 to i1
  %81 = xor i1 %80, true
  %82 = load ptr, ptr %16, align 8
  %83 = getelementptr inbounds nuw %struct.TuplesortPublic, ptr %82, i32 0, i32 14
  %84 = zext i1 %81 to i8
  store i8 %84, ptr %83, align 4
  %85 = call ptr @palloc0(i64 noundef 64)
  %86 = load ptr, ptr %16, align 8
  %87 = getelementptr inbounds nuw %struct.TuplesortPublic, ptr %86, i32 0, i32 11
  store ptr %85, ptr %87, align 8
  %88 = load ptr, ptr @CurrentMemoryContext, align 8
  %89 = load ptr, ptr %16, align 8
  %90 = getelementptr inbounds nuw %struct.TuplesortPublic, ptr %89, i32 0, i32 11
  %91 = load ptr, ptr %90, align 8
  %92 = getelementptr inbounds nuw %struct.SortSupportData, ptr %91, i32 0, i32 0
  store ptr %88, ptr %92, align 8
  %93 = load i32, ptr %10, align 4
  %94 = load ptr, ptr %16, align 8
  %95 = getelementptr inbounds nuw %struct.TuplesortPublic, ptr %94, i32 0, i32 11
  %96 = load ptr, ptr %95, align 8
  %97 = getelementptr inbounds nuw %struct.SortSupportData, ptr %96, i32 0, i32 1
  store i32 %93, ptr %97, align 8
  %98 = load i8, ptr %11, align 1, !range !4, !noundef !5
  %99 = trunc i8 %98 to i1
  %100 = load ptr, ptr %16, align 8
  %101 = getelementptr inbounds nuw %struct.TuplesortPublic, ptr %100, i32 0, i32 11
  %102 = load ptr, ptr %101, align 8
  %103 = getelementptr inbounds nuw %struct.SortSupportData, ptr %102, i32 0, i32 3
  %104 = zext i1 %99 to i8
  store i8 %104, ptr %103, align 1
  %105 = load i8, ptr %20, align 1, !range !4, !noundef !5
  %106 = trunc i8 %105 to i1
  %107 = xor i1 %106, true
  %108 = load ptr, ptr %16, align 8
  %109 = getelementptr inbounds nuw %struct.TuplesortPublic, ptr %108, i32 0, i32 11
  %110 = load ptr, ptr %109, align 8
  %111 = getelementptr inbounds nuw %struct.SortSupportData, ptr %110, i32 0, i32 7
  %112 = zext i1 %107 to i8
  store i8 %112, ptr %111, align 8
  %113 = load i32, ptr %9, align 4
  %114 = load ptr, ptr %16, align 8
  %115 = getelementptr inbounds nuw %struct.TuplesortPublic, ptr %114, i32 0, i32 11
  %116 = load ptr, ptr %115, align 8
  call void @PrepareSortSupportFromOrderingOp(i32 noundef %113, ptr noundef %116)
  %117 = load ptr, ptr %16, align 8
  %118 = getelementptr inbounds nuw %struct.TuplesortPublic, ptr %117, i32 0, i32 11
  %119 = load ptr, ptr %118, align 8
  %120 = getelementptr inbounds nuw %struct.SortSupportData, ptr %119, i32 0, i32 8
  %121 = load ptr, ptr %120, align 8
  %122 = icmp ne ptr %121, null
  br i1 %122, label %129, label %123

123:                                              ; preds = %55
  %124 = load ptr, ptr %16, align 8
  %125 = getelementptr inbounds nuw %struct.TuplesortPublic, ptr %124, i32 0, i32 11
  %126 = load ptr, ptr %125, align 8
  %127 = load ptr, ptr %16, align 8
  %128 = getelementptr inbounds nuw %struct.TuplesortPublic, ptr %127, i32 0, i32 12
  store ptr %126, ptr %128, align 8
  br label %129

129:                                              ; preds = %123, %55
  %130 = load ptr, ptr %18, align 8
  %131 = call ptr @MemoryContextSwitchTo(ptr noundef %130)
  %132 = load ptr, ptr %15, align 8
  call void @llvm.lifetime.end.p0(i64 1, ptr %20) #6
  call void @llvm.lifetime.end.p0(i64 2, ptr %19) #6
  call void @llvm.lifetime.end.p0(i64 8, ptr %18) #6
  call void @llvm.lifetime.end.p0(i64 8, ptr %17) #6
  call void @llvm.lifetime.end.p0(i64 8, ptr %16) #6
  call void @llvm.lifetime.end.p0(i64 8, ptr %15) #6
  ret ptr %132
}