; Function Attrs: nounwind uwtable
define dso_local ptr @tuplesort_begin_datum(i32 noundef %0, i32 noundef %1, i32 noundef %2, i1 noundef zeroext %3, i32 noundef %4, ptr noundef %5, i32 noundef %6) local_unnamed_addr #0 {
  %8 = alloca i16, align 2
  %9 = alloca i8, align 1
  %10 = zext i1 %3 to i8
  %11 = tail call ptr @tuplesort_begin_common(i32 noundef %4, ptr noundef %5, i32 noundef %6) #12
  call void @llvm.lifetime.start.p0(i64 2, ptr nonnull %8) #12
  call void @llvm.lifetime.start.p0(i64 1, ptr nonnull %9) #12
  %12 = getelementptr inbounds nuw i8, ptr %11, i64 48
  %13 = load ptr, ptr %12, align 8
  %14 = load ptr, ptr @CurrentMemoryContext, align 8
  store ptr %13, ptr @CurrentMemoryContext, align 8
  %15 = tail call ptr @palloc(i64 noundef 8) #12
  %16 = load i8, ptr @trace_sort, align 1, !range !4, !noundef !5
  %17 = trunc nuw i8 %16 to i1
  br i1 %17, label %18, label %24

18:                                               ; preds = %7
  %19 = tail call zeroext i1 @errstart(i32 noundef 15, ptr noundef null) #12
  br i1 %19, label %20, label %24

20:                                               ; preds = %18
  %21 = and i32 %6, 1
  %.not = icmp eq i32 %21, 0
  %22 = select i1 %.not, i32 102, i32 116
  %23 = tail call i32 (ptr, ...) @errmsg_internal(ptr noundef nonnull @.str.5, i32 noundef %4, i32 noundef %22) #12
  tail call void @errfinish(ptr noundef nonnull @.str.1, i32 noundef 590, ptr noundef nonnull @__func__.tuplesort_begin_datum) #12
  br label %24

24:                                               ; preds = %18, %20, %7
  %25 = getelementptr inbounds nuw i8, ptr %11, i64 76
  store i32 1, ptr %25, align 4
  %26 = getelementptr inbounds nuw i8, ptr %11, i64 16
  store ptr @removeabbrev_datum, ptr %26, align 8
  store ptr @comparetup_datum, ptr %11, align 8
  %27 = getelementptr inbounds nuw i8, ptr %11, i64 8
  store ptr @comparetup_datum_tiebreak, ptr %27, align 8
  %28 = getelementptr inbounds nuw i8, ptr %11, i64 24
  store ptr @writetup_datum, ptr %28, align 8
  %29 = getelementptr inbounds nuw i8, ptr %11, i64 32
  store ptr @readtup_datum, ptr %29, align 8
  %30 = getelementptr inbounds nuw i8, ptr %11, i64 72
  store i8 1, ptr %30, align 8
  %31 = getelementptr inbounds nuw i8, ptr %11, i64 104
  store ptr %15, ptr %31, align 8
  store i32 %0, ptr %15, align 4
  call void @get_typlenbyval(i32 noundef %0, ptr noundef nonnull %8, ptr noundef nonnull %9) #12
  %32 = load i16, ptr %8, align 2
  %33 = sext i16 %32 to i32
  %34 = getelementptr inbounds nuw i8, ptr %15, i64 4
  store i32 %33, ptr %34, align 4
  %35 = load i8, ptr %9, align 1, !range !4, !noundef !5
  %36 = xor i8 %35, 1
  %37 = getelementptr inbounds nuw i8, ptr %11, i64 100
  store i8 %36, ptr %37, align 4
  %38 = call ptr @palloc0(i64 noundef 64) #12
  %39 = getelementptr inbounds nuw i8, ptr %11, i64 80
  store ptr %38, ptr %39, align 8
  %40 = load ptr, ptr @CurrentMemoryContext, align 8
  store ptr %40, ptr %38, align 8
  %41 = load ptr, ptr %39, align 8
  %42 = getelementptr inbounds nuw i8, ptr %41, i64 8
  store i32 %2, ptr %42, align 8
  %43 = load ptr, ptr %39, align 8
  %44 = getelementptr inbounds nuw i8, ptr %43, i64 13
  store i8 %10, ptr %44, align 1
  %45 = load i8, ptr %9, align 1, !range !4, !noundef !5
  %46 = xor i8 %45, 1
  %47 = load ptr, ptr %39, align 8
  %48 = getelementptr inbounds nuw i8, ptr %47, i64 32
  store i8 %46, ptr %48, align 8
  %49 = load ptr, ptr %39, align 8
  call void @PrepareSortSupportFromOrderingOp(i32 noundef %1, ptr noundef %49) #12
  %50 = load ptr, ptr %39, align 8
  %51 = getelementptr inbounds nuw i8, ptr %50, i64 40
  %52 = load ptr, ptr %51, align 8
  %.not34 = icmp eq ptr %52, null
  br i1 %.not34, label %53, label %55

53:                                               ; preds = %24
  %54 = getelementptr inbounds nuw i8, ptr %11, i64 88
  store ptr %50, ptr %54, align 8
  br label %55

55:                                               ; preds = %53, %24
  store ptr %14, ptr @CurrentMemoryContext, align 8
  call void @llvm.lifetime.end.p0(i64 1, ptr nonnull %9) #12
  call void @llvm.lifetime.end.p0(i64 2, ptr nonnull %8) #12
  ret ptr %11
}